; Function Attrs: nounwind uwtable
define dso_local ptr @PyCell_New(ptr noundef %0) local_unnamed_addr #0 {
  %2 = tail call ptr @_PyObject_GC_New(ptr noundef nonnull @PyCell_Type) #4
  %3 = icmp eq ptr %2, null
  br i1 %3, label %34, label %4

4:                                                ; preds = %1
  %.not.i.i = icmp eq ptr %0, null
  br i1 %.not.i.i, label %_Py_XNewRef.exit, label %5

5:                                                ; preds = %4
  %6 = load i32, ptr %0, align 8, !tbaa !4
  %7 = icmp slt i32 %6, 0
  br i1 %7, label %_Py_XNewRef.exit, label %8

8:                                                ; preds = %5
  %9 = add nuw i32 %6, 1
  store i32 %9, ptr %0, align 8, !tbaa !4
  br label %_Py_XNewRef.exit

_Py_XNewRef.exit:                                 ; preds = %4, %5, %8
  %10 = getelementptr inbounds nuw i8, ptr %2, i64 16
  store ptr %0, ptr %10, align 8, !tbaa !7
  %11 = getelementptr i8, ptr %2, i64 -16
  %12 = tail call align 8 ptr @llvm.threadlocal.address.p0(ptr align 8 @_Py_tss_tstate)
  %13 = load ptr, ptr %12, align 8, !tbaa !13
  %14 = getelementptr inbounds nuw i8, ptr %13, i64 16
  %15 = load ptr, ptr %14, align 8, !tbaa !15
  %16 = getelementptr inbounds nuw i8, ptr %15, i64 7424
  %17 = getelementptr inbounds nuw i8, ptr %15, i64 7432
  %18 = load i64, ptr %17, align 8, !tbaa !26
  %19 = inttoptr i64 %18 to ptr
  %20 = ptrtoint ptr %11 to i64
  %21 = load i64, ptr %19, align 8, !tbaa !28
  %22 = and i64 %21, 3
  %23 = or i64 %22, %20
  store i64 %23, ptr %19, align 8, !tbaa !28
  %24 = getelementptr i8, ptr %2, i64 -8
  %25 = load i64, ptr %24, align 8, !tbaa !26
  %26 = and i64 %25, 3
  %27 = or i64 %26, %18
  store i64 %27, ptr %24, align 8, !tbaa !26
  %28 = getelementptr inbounds nuw i8, ptr %15, i64 7632
  %29 = load i32, ptr %28, align 8, !tbaa !29
  %30 = xor i32 %29, 1
  %31 = sext i32 %30 to i64
  %32 = ptrtoint ptr %16 to i64
  %33 = or i64 %31, %32
  store i64 %33, ptr %11, align 8, !tbaa !28
  store i64 %20, ptr %17, align 8, !tbaa !26
  br label %34

34:                                               ; preds = %1, %_Py_XNewRef.exit
  ret ptr %2
}